target datalayout = "e-m:e-p270:32:32-p271:32:32-p272:64:64-i64:64-i128:128-f80:128-n8:16:32:64-S128"
target triple = "x86_64-pc-linux-gnu"

%struct.Bucket = type { %struct._PyRawMutex, %struct.llist_node, i64 }
%struct._PyRawMutex = type { i64 }
%struct.llist_node = type { ptr, ptr }

; Function Attrs: inlinehint nounwind uwtable
define internal void @llist_init(ptr noundef %0) #4 {
  %2 = alloca ptr, align 8
  store ptr %0, ptr %2, align 8, !tbaa !36
  %3 = load ptr, ptr %2, align 8, !tbaa !36
  %4 = load ptr, ptr %2, align 8, !tbaa !36
  %5 = getelementptr inbounds nuw %struct.llist_node, ptr %4, i32 0, i32 0
  store ptr %3, ptr %5, align 8, !tbaa !38
  %6 = load ptr, ptr %2, align 8, !tbaa !36
  %7 = load ptr, ptr %2, align 8, !tbaa !36
  %8 = getelementptr inbounds nuw %struct.llist_node, ptr %7, i32 0, i32 1
  store ptr %6, ptr %8, align 8, !tbaa !37
  ret void
}

; Function Attrs: nounwind uwtable
define dso_local void @_PyParkingLot_AfterFork() #0 {
  %1 = alloca i64, align 8
  call void @llvm.memset.p0.i64(ptr align 16 @buckets, i8 0, i64 8224, i1 false)
  call void @llvm.lifetime.start.p0(i64 8, ptr %1) #9
  store i64 0, ptr %1, align 8, !tbaa !9
  br label %2

2:                                                ; preds = %10, %0
  %3 = load i64, ptr %1, align 8, !tbaa !9
  %4 = icmp slt i64 %3, 257
  br i1 %4, label %6, label %5

5:                                                ; preds = %2
  call void @llvm.lifetime.end.p0(i64 8, ptr %1) #9
  br label %13

6:                                                ; preds = %2
  %7 = load i64, ptr %1, align 8, !tbaa !9
  %8 = getelementptr [257 x %struct.Bucket], ptr @buckets, i64 0, i64 %7
  %9 = getelementptr inbounds nuw %struct.Bucket, ptr %8, i32 0, i32 1
  call void @llist_init(ptr noundef %9)
  br label %10

10:                                               ; preds = %6
  %11 = load i64, ptr %1, align 8, !tbaa !9
  %12 = add i64 %11, 1
  store i64 %12, ptr %1, align 8, !tbaa !9
  br label %2, !llvm.loop !42

13:                                               ; preds = %5
  ret void
}