; Function Attrs: nofree norecurse nosync nounwind memory(write, argmem: none, inaccessiblemem: none) uwtable
define dso_local void @_PyParkingLot_AfterFork() local_unnamed_addr #6 {
  tail call void @llvm.memset.p0.i64(ptr noundef nonnull align 16 dereferenceable(8224) @buckets, i8 0, i64 8224, i1 false)
  br label %2

1:                                                ; preds = %2
  ret void

2:                                                ; preds = %0, %2
  %.03 = phi i64 [ 0, %0 ], [ %5, %2 ]
  %3 = getelementptr [257 x %struct.Bucket], ptr @buckets, i64 0, i64 %.03, i32 1
  store ptr %3, ptr %3, align 8, !tbaa !24
  %4 = getelementptr inbounds nuw i8, ptr %3, i64 8
  store ptr %3, ptr %4, align 16, !tbaa !23
  %5 = add nuw nsw i64 %.03, 1
  %exitcond.not = icmp eq i64 %5, 257
  br i1 %exitcond.not, label %1, label %2, !llvm.loop !35
}